; Function Attrs: mustprogress uwtable
define hidden void @_ZN3sls10smt_plugin11bounded_runEj(ptr noundef nonnull align 8 dereferenceable(3024) %0, i32 noundef %1) local_unnamed_addr #3 align 2 personality ptr @__gxx_personality_v0 {
  %3 = alloca %struct.scoped_limits, align 8
  %4 = tail call noundef i32 @_Z19get_verbosity_levelv()
  %5 = icmp ugt i32 %4, 2
  br i1 %5, label %6, label %20

6:                                                ; preds = %2
  %7 = tail call noundef zeroext i1 @_Z11is_threadedv()
  br i1 %7, label %8, label %14

8:                                                ; preds = %6
  tail call void @_Z12verbose_lockv()
  %9 = tail call noundef nonnull align 8 dereferenceable(8) ptr @_Z14verbose_streamv()
  %10 = tail call noundef nonnull align 8 dereferenceable(8) ptr @_ZSt16__ostream_insertIcSt11char_traitsIcEERSt13basic_ostreamIT_T0_ES6_PKS3_l(ptr noundef nonnull align 8 dereferenceable(8) %9, ptr noundef nonnull @.str.3, i64 noundef 14)
  %11 = zext i32 %1 to i64
  %12 = tail call noundef nonnull align 8 dereferenceable(8) ptr @_ZNSo9_M_insertImEERSoT_(ptr noundef nonnull align 8 dereferenceable(8) %9, i64 noundef %11)
  %13 = tail call noundef nonnull align 8 dereferenceable(8) ptr @_ZSt16__ostream_insertIcSt11char_traitsIcEERSt13basic_ostreamIT_T0_ES6_PKS3_l(ptr noundef nonnull align 8 dereferenceable(8) %12, ptr noundef nonnull @.str.4, i64 noundef 2)
  tail call void @_Z14verbose_unlockv()
  br label %20

14:                                               ; preds = %6
  %15 = tail call noundef nonnull align 8 dereferenceable(8) ptr @_Z14verbose_streamv()
  %16 = tail call noundef nonnull align 8 dereferenceable(8) ptr @_ZSt16__ostream_insertIcSt11char_traitsIcEERSt13basic_ostreamIT_T0_ES6_PKS3_l(ptr noundef nonnull align 8 dereferenceable(8) %15, ptr noundef nonnull @.str.3, i64 noundef 14)
  %17 = zext i32 %1 to i64
  %18 = tail call noundef nonnull align 8 dereferenceable(8) ptr @_ZNSo9_M_insertImEERSoT_(ptr noundef nonnull align 8 dereferenceable(8) %15, i64 noundef %17)
  %19 = tail call noundef nonnull align 8 dereferenceable(8) ptr @_ZSt16__ostream_insertIcSt11char_traitsIcEERSt13basic_ostreamIT_T0_ES6_PKS3_l(ptr noundef nonnull align 8 dereferenceable(8) %18, ptr noundef nonnull @.str.4, i64 noundef 2)
  br label %20

20:                                               ; preds = %8, %14, %2
  %21 = getelementptr inbounds nuw i8, ptr %0, i64 2472
  %22 = load ptr, ptr %21, align 8, !tbaa !191
  %23 = getelementptr inbounds nuw i8, ptr %22, i64 32
  %24 = getelementptr inbounds nuw i8, ptr %22, i64 40
  store i64 0, ptr %24, align 8, !tbaa !302
  tail call void @_ZN8reslimit4pushEj(ptr noundef nonnull align 8 dereferenceable(40) %23, i32 noundef %1)
  call void @llvm.lifetime.start.p0(i64 16, ptr nonnull %3) #23
  %25 = getelementptr inbounds nuw i8, ptr %0, i64 24
  %26 = load ptr, ptr %25, align 8, !tbaa !12
  store ptr %26, ptr %3, align 8, !tbaa !303
  %27 = getelementptr inbounds nuw i8, ptr %3, i64 8
  store i32 0, ptr %27, align 8, !tbaa !305
  %28 = load ptr, ptr %21, align 8, !tbaa !191
  %29 = getelementptr inbounds nuw i8, ptr %28, i64 32
  invoke void @_ZN8reslimit10push_childEPS_(ptr noundef nonnull align 8 dereferenceable(40) %26, ptr noundef nonnull %29)
          to label %30 unwind label %36

30:                                               ; preds = %20
  store i32 1, ptr %27, align 8, !tbaa !305
  invoke void @_ZN3sls10smt_plugin3runEv(ptr noundef nonnull align 8 dereferenceable(3024) %0)
          to label %.lr.ph.i.i unwind label %36

.lr.ph.i.i:                                       ; preds = %30
  invoke void @_ZN8reslimit9pop_childEv(ptr noundef nonnull align 8 dereferenceable(40) %26)
          to label %_ZN13scoped_limitsD2Ev.exit unwind label %31

31:                                               ; preds = %.lr.ph.i.i
  %32 = landingpad { ptr, i32 }
          catch ptr null
  %33 = extractvalue { ptr, i32 } %32, 0
  tail call void @__clang_call_terminate(ptr %33) #24
  unreachable

_ZN13scoped_limitsD2Ev.exit:                      ; preds = %.lr.ph.i.i
  call void @llvm.lifetime.end.p0(i64 16, ptr nonnull %3) #23
  %34 = load ptr, ptr %21, align 8, !tbaa !191
  %35 = getelementptr inbounds nuw i8, ptr %34, i64 32
  tail call void @_ZN8reslimit3popEv(ptr noundef nonnull align 8 dereferenceable(40) %35)
  ret void

36:                                               ; preds = %20, %30
  %37 = landingpad { ptr, i32 }
          cleanup
  call void @_ZN13scoped_limitsD2Ev(ptr noundef nonnull align 8 dereferenceable(12) %3) #23
  call void @llvm.lifetime.end.p0(i64 16, ptr nonnull %3) #23
  resume { ptr, i32 } %37
}